; Function Attrs: nounwind uwtable
define i64 @dtgtk_drawing_area_get_type() local_unnamed_addr #0 {
  %1 = load atomic i64, ptr @dtgtk_drawing_area_get_type.static_g_define_type_id seq_cst, align 8
  %.not = icmp eq i64 %1, 0
  br i1 %.not, label %2, label %.critedge

2:                                                ; preds = %0
  %3 = tail call i32 @g_once_init_enter(ptr noundef nonnull @dtgtk_drawing_area_get_type.static_g_define_type_id) #5
  %.not4 = icmp eq i32 %3, 0
  br i1 %.not4, label %.critedge, label %4

4:                                                ; preds = %2
  %5 = tail call fastcc i64 @dtgtk_drawing_area_get_type_once()
  tail call void @g_once_init_leave(ptr noundef nonnull @dtgtk_drawing_area_get_type.static_g_define_type_id, i64 noundef %5) #5
  br label %.critedge

.critedge:                                        ; preds = %0, %4, %2
  %6 = load i64, ptr @dtgtk_drawing_area_get_type.static_g_define_type_id, align 8, !tbaa !6
  ret i64 %6
}